; Function Attrs: nounwind uwtable
define internal fastcc i32 @lessequalothers(ptr noundef %0, ptr noundef %1, ptr noundef %2) unnamed_addr #0 {
  %4 = getelementptr inbounds nuw i8, ptr %1, i64 8
  %5 = load i8, ptr %4, align 8, !tbaa !4
  %6 = and i8 %5, 15
  %7 = icmp eq i8 %6, 4
  br i1 %7, label %8, label %61

8:                                                ; preds = %3
  %9 = getelementptr inbounds nuw i8, ptr %2, i64 8
  %10 = load i8, ptr %9, align 8, !tbaa !4
  %11 = and i8 %10, 15
  %12 = icmp eq i8 %11, 4
  br i1 %12, label %13, label %61

13:                                               ; preds = %8
  %14 = load ptr, ptr %1, align 8, !tbaa !8
  %15 = load ptr, ptr %2, align 8, !tbaa !8
  %16 = getelementptr inbounds nuw i8, ptr %14, i64 11
  %17 = load i8, ptr %16, align 1, !tbaa !9
  %18 = icmp sgt i8 %17, -1
  br i1 %18, label %19, label %22

19:                                               ; preds = %13
  %20 = zext nneg i8 %17 to i64
  %21 = getelementptr inbounds nuw i8, ptr %14, i64 24
  br label %27

22:                                               ; preds = %13
  %23 = getelementptr inbounds nuw i8, ptr %14, i64 16
  %24 = load i64, ptr %23, align 8, !tbaa !8
  %25 = getelementptr inbounds nuw i8, ptr %14, i64 24
  %26 = load ptr, ptr %25, align 8, !tbaa !15
  br label %27

27:                                               ; preds = %22, %19
  %.046.i = phi i64 [ %20, %19 ], [ %24, %22 ]
  %28 = phi ptr [ %21, %19 ], [ %26, %22 ]
  %29 = getelementptr inbounds nuw i8, ptr %15, i64 11
  %30 = load i8, ptr %29, align 1, !tbaa !9
  %31 = icmp sgt i8 %30, -1
  br i1 %31, label %32, label %35

32:                                               ; preds = %27
  %33 = zext nneg i8 %30 to i64
  %34 = getelementptr inbounds nuw i8, ptr %15, i64 24
  br label %40

35:                                               ; preds = %27
  %36 = getelementptr inbounds nuw i8, ptr %15, i64 16
  %37 = load i64, ptr %36, align 8, !tbaa !8
  %38 = getelementptr inbounds nuw i8, ptr %15, i64 24
  %39 = load ptr, ptr %38, align 8, !tbaa !15
  br label %40

40:                                               ; preds = %35, %32
  %.040.i = phi i64 [ %33, %32 ], [ %37, %35 ]
  %41 = phi ptr [ %34, %32 ], [ %39, %35 ]
  %42 = tail call i32 @strcoll(ptr noundef %28, ptr noundef %41) #15
  %.not61.i = icmp eq i32 %42, 0
  br i1 %.not61.i, label %.lr.ph.i, label %l_strcmp.exit

.lr.ph.i:                                         ; preds = %40, %51
  %.03765.i = phi ptr [ %56, %51 ], [ %41, %40 ]
  %.14164.i = phi i64 [ %57, %51 ], [ %.040.i, %40 ]
  %.04363.i = phi ptr [ %54, %51 ], [ %28, %40 ]
  %.14762.i = phi i64 [ %55, %51 ], [ %.046.i, %40 ]
  %43 = tail call i64 @strlen(ptr noundef nonnull dereferenceable(1) %.04363.i) #15
  %44 = tail call i64 @strlen(ptr noundef nonnull dereferenceable(1) %.03765.i) #15
  %45 = icmp eq i64 %44, %.14164.i
  br i1 %45, label %46, label %49

46:                                               ; preds = %.lr.ph.i
  %47 = icmp ne i64 %43, %.14762.i
  %48 = zext i1 %47 to i32
  br label %l_strcmp.exit

49:                                               ; preds = %.lr.ph.i
  %50 = icmp eq i64 %43, %.14762.i
  br i1 %50, label %l_strcmp.exit, label %51

51:                                               ; preds = %49
  %52 = add i64 %43, 1
  %53 = add i64 %44, 1
  %54 = getelementptr inbounds nuw i8, ptr %.04363.i, i64 %52
  %55 = sub i64 %.14762.i, %52
  %56 = getelementptr inbounds nuw i8, ptr %.03765.i, i64 %53
  %57 = sub i64 %.14164.i, %53
  %58 = tail call i32 @strcoll(ptr noundef nonnull %54, ptr noundef nonnull %56) #15
  %.not.i = icmp eq i32 %58, 0
  br i1 %.not.i, label %.lr.ph.i, label %l_strcmp.exit

l_strcmp.exit:                                    ; preds = %49, %51, %40, %46
  %.136.ph.i = phi i32 [ %48, %46 ], [ %42, %40 ], [ %58, %51 ], [ -1, %49 ]
  %59 = icmp slt i32 %.136.ph.i, 1
  %60 = zext i1 %59 to i32
  br label %63

61:                                               ; preds = %8, %3
  %62 = tail call i32 @luaT_callorderTM(ptr noundef %0, ptr noundef nonnull %1, ptr noundef %2, i32 noundef 21) #13
  br label %63

63:                                               ; preds = %61, %l_strcmp.exit
  %.0 = phi i32 [ %60, %l_strcmp.exit ], [ %62, %61 ]
  ret i32 %.0
}